
mt-matmul.riscv:     file format elf64-littleriscv


Disassembly of section .text:

0000000080001048 <barrier>:
    80001048:	0ff0000f          	fence
    8000104c:	00022703          	lw	a4,0(tp) # 0 <_tdata_begin>
    80001050:	a3c18693          	addi	a3,gp,-1476 # 8000288c <count.3245>
    80001054:	4605                	li	a2,1
    80001056:	00173713          	seqz	a4,a4
    8000105a:	00e22023          	sw	a4,0(tp) # 0 <_tdata_begin>
    8000105e:	0f50000f          	fence	iorw,ow
    80001062:	04c6a72f          	amoadd.w.aq	a4,a2,(a3)
    80001066:	357d                	addiw	a0,a0,-1
    80001068:	2701                	sext.w	a4,a4
    8000106a:	00e50d63          	beq	a0,a4,80001084 <barrier+0x3c>
    8000106e:	00022683          	lw	a3,0(tp) # 0 <_tdata_begin>
    80001072:	a3818713          	addi	a4,gp,-1480 # 80002888 <sense.3244>
    80001076:	431c                	lw	a5,0(a4)
    80001078:	2781                	sext.w	a5,a5
    8000107a:	fed79ee3          	bne	a5,a3,80001076 <barrier+0x2e>
    8000107e:	0ff0000f          	fence
    80001082:	8082                	ret
    80001084:	00022783          	lw	a5,0(tp) # 0 <_tdata_begin>
    80001088:	a201ae23          	sw	zero,-1476(gp) # 8000288c <count.3245>
    8000108c:	a2f1ac23          	sw	a5,-1480(gp) # 80002888 <sense.3244>
    80001090:	b7fd                	j	8000107e <barrier+0x36>

0000000080001092 <thread_entry>:
    80001092:	7179                	addi	sp,sp,-48
    80001094:	f022                	sd	s0,32(sp)
    80001096:	ec26                	sd	s1,24(sp)
    80001098:	f406                	sd	ra,40(sp)
    8000109a:	e84a                	sd	s2,16(sp)
    8000109c:	e44e                	sd	s3,8(sp)
    8000109e:	842a                	mv	s0,a0
    800010a0:	84ae                	mv	s1,a1
    800010a2:	b00029f3          	csrr	s3,mcycle
    800010a6:	b0202973          	csrr	s2,minstret
    800010aa:	a4818793          	addi	a5,gp,-1464 # 80002898 <results_data.3268>
    800010ae:	00001717          	auipc	a4,0x1
    800010b2:	9a270713          	addi	a4,a4,-1630 # 80001a50 <input2_data>
    800010b6:	00001697          	auipc	a3,0x1
    800010ba:	d9a68693          	addi	a3,a3,-614 # 80001e50 <input1_data>
    800010be:	4641                	li	a2,16
    800010c0:	090000ef          	jal	ra,80001150 <matmul>
    800010c4:	8526                	mv	a0,s1
    800010c6:	f83ff0ef          	jal	ra,80001048 <barrier>
    800010ca:	b00028f3          	csrr	a7,mcycle
    800010ce:	b02027f3          	csrr	a5,minstret
    800010d2:	c021                	beqz	s0,80001112 <thread_entry+0x80>
    800010d4:	a4818713          	addi	a4,gp,-1464 # 80002898 <results_data.3268>
    800010d8:	00001797          	auipc	a5,0x1
    800010dc:	17878793          	addi	a5,a5,376 # 80002250 <verify_data>
    800010e0:	4501                	li	a0,0
    800010e2:	10000593          	li	a1,256
    800010e6:	4310                	lw	a2,0(a4)
    800010e8:	0007a883          	lw	a7,0(a5)
    800010ec:	4354                	lw	a3,4(a4)
    800010ee:	2601                	sext.w	a2,a2
    800010f0:	0047a803          	lw	a6,4(a5)
    800010f4:	2681                	sext.w	a3,a3
    800010f6:	00c89c63          	bne	a7,a2,8000110e <thread_entry+0x7c>
    800010fa:	2509                	addiw	a0,a0,2
    800010fc:	01069763          	bne	a3,a6,8000110a <thread_entry+0x78>
    80001100:	0721                	addi	a4,a4,8
    80001102:	07a1                	addi	a5,a5,8
    80001104:	feb511e3          	bne	a0,a1,800010e6 <thread_entry+0x54>
    80001108:	4501                	li	a0,0
    8000110a:	5ea000ef          	jal	ra,800016f4 <exit>
    8000110e:	2505                	addiw	a0,a0,1
    80001110:	bfed                	j	8000110a <thread_entry+0x78>
    80001112:	413888b3          	sub	a7,a7,s3
    80001116:	4729                	li	a4,10
    80001118:	02e88333          	mul	t1,a7,a4
    8000111c:	412787b3          	sub	a5,a5,s2
    80001120:	00c8d693          	srli	a3,a7,0xc
    80001124:	8646                	mv	a2,a7
    80001126:	00001597          	auipc	a1,0x1
    8000112a:	53258593          	addi	a1,a1,1330 # 80002658 <verify_data+0x408>
    8000112e:	00001517          	auipc	a0,0x1
    80001132:	57a50513          	addi	a0,a0,1402 # 800026a8 <verify_data+0x458>
    80001136:	02f35833          	divu	a6,t1,a5
    8000113a:	00c35313          	srli	t1,t1,0xc
    8000113e:	02e87833          	remu	a6,a6,a4
    80001142:	02f8d7b3          	divu	a5,a7,a5
    80001146:	02e37733          	remu	a4,t1,a4
    8000114a:	65e000ef          	jal	ra,800017a8 <printf>
    8000114e:	b759                	j	800010d4 <thread_entry+0x42>

0000000080001150 <matmul>:
    80001150:	02b655b3          	divu	a1,a2,a1
    80001154:	7179                	addi	sp,sp,-48
    80001156:	ec4a                	sd	s2,24(sp)
    80001158:	f422                	sd	s0,40(sp)
    8000115a:	f026                	sd	s1,32(sp)
    8000115c:	e84e                	sd	s3,16(sp)
    8000115e:	e452                	sd	s4,8(sp)
    80001160:	02a58933          	mul	s2,a1,a0
    80001164:	18060a63          	beqz	a2,800012f8 <matmul+0x1a8>
    80001168:	00261313          	slli	t1,a2,0x2
    8000116c:	00190813          	addi	a6,s2,1
    80001170:	83ba                	mv	t2,a4
    80001172:	01258533          	add	a0,a1,s2
    80001176:	4481                	li	s1,0
    80001178:	02690a33          	mul	s4,s2,t1
    8000117c:	02680733          	mul	a4,a6,t1
    80001180:	01478433          	add	s0,a5,s4
    80001184:	9a36                	add	s4,s4,a3
    80001186:	00e689b3          	add	s3,a3,a4
    8000118a:	16a97263          	bgeu	s2,a0,800012ee <matmul+0x19e>
    8000118e:	8ece                	mv	t4,s3
    80001190:	8f52                	mv	t5,s4
    80001192:	82a2                	mv	t0,s0
    80001194:	8fca                	mv	t6,s2
    80001196:	41ee86b3          	sub	a3,t4,t5
    8000119a:	16f1                	addi	a3,a3,-4
    8000119c:	8289                	srli	a3,a3,0x2
    8000119e:	0685                	addi	a3,a3,1
    800011a0:	8a9d                	andi	a3,a3,7
    800011a2:	879e                	mv	a5,t2
    800011a4:	88fa                	mv	a7,t5
    800011a6:	4701                	li	a4,0
    800011a8:	c6cd                	beqz	a3,80001252 <matmul+0x102>
    800011aa:	4585                	li	a1,1
    800011ac:	08b68863          	beq	a3,a1,8000123c <matmul+0xec>
    800011b0:	4589                	li	a1,2
    800011b2:	06b68c63          	beq	a3,a1,8000122a <matmul+0xda>
    800011b6:	458d                	li	a1,3
    800011b8:	06b68063          	beq	a3,a1,80001218 <matmul+0xc8>
    800011bc:	4591                	li	a1,4
    800011be:	04b68463          	beq	a3,a1,80001206 <matmul+0xb6>
    800011c2:	4595                	li	a1,5
    800011c4:	02b68863          	beq	a3,a1,800011f4 <matmul+0xa4>
    800011c8:	4599                	li	a1,6
    800011ca:	00b68c63          	beq	a3,a1,800011e2 <matmul+0x92>
    800011ce:	000f2583          	lw	a1,0(t5)
    800011d2:	0003a683          	lw	a3,0(t2)
    800011d6:	004f0893          	addi	a7,t5,4
    800011da:	006387b3          	add	a5,t2,t1
    800011de:	02d5873b          	mulw	a4,a1,a3
    800011e2:	0008a583          	lw	a1,0(a7)
    800011e6:	4394                	lw	a3,0(a5)
    800011e8:	0891                	addi	a7,a7,4
    800011ea:	979a                	add	a5,a5,t1
    800011ec:	02d5883b          	mulw	a6,a1,a3
    800011f0:	00e8073b          	addw	a4,a6,a4
    800011f4:	0008a583          	lw	a1,0(a7)
    800011f8:	4394                	lw	a3,0(a5)
    800011fa:	0891                	addi	a7,a7,4
    800011fc:	979a                	add	a5,a5,t1
    800011fe:	02d5883b          	mulw	a6,a1,a3
    80001202:	00e8073b          	addw	a4,a6,a4
    80001206:	0008a583          	lw	a1,0(a7)
    8000120a:	4394                	lw	a3,0(a5)
    8000120c:	0891                	addi	a7,a7,4
    8000120e:	979a                	add	a5,a5,t1
    80001210:	02d5883b          	mulw	a6,a1,a3
    80001214:	00e8073b          	addw	a4,a6,a4
    80001218:	0008a583          	lw	a1,0(a7)
    8000121c:	4394                	lw	a3,0(a5)
    8000121e:	0891                	addi	a7,a7,4
    80001220:	979a                	add	a5,a5,t1
    80001222:	02d5883b          	mulw	a6,a1,a3
    80001226:	00e8073b          	addw	a4,a6,a4
    8000122a:	0008a583          	lw	a1,0(a7)
    8000122e:	4394                	lw	a3,0(a5)
    80001230:	0891                	addi	a7,a7,4
    80001232:	979a                	add	a5,a5,t1
    80001234:	02d5883b          	mulw	a6,a1,a3
    80001238:	00e8073b          	addw	a4,a6,a4
    8000123c:	0008a583          	lw	a1,0(a7)
    80001240:	4394                	lw	a3,0(a5)
    80001242:	0891                	addi	a7,a7,4
    80001244:	979a                	add	a5,a5,t1
    80001246:	02d5883b          	mulw	a6,a1,a3
    8000124a:	00e8073b          	addw	a4,a6,a4
    8000124e:	09d88863          	beq	a7,t4,800012de <matmul+0x18e>
    80001252:	0008a583          	lw	a1,0(a7)
    80001256:	4394                	lw	a3,0(a5)
    80001258:	979a                	add	a5,a5,t1
    8000125a:	00488e13          	addi	t3,a7,4
    8000125e:	02d5883b          	mulw	a6,a1,a3
    80001262:	0048a583          	lw	a1,4(a7)
    80001266:	4394                	lw	a3,0(a5)
    80001268:	979a                	add	a5,a5,t1
    8000126a:	02088893          	addi	a7,a7,32
    8000126e:	00e8073b          	addw	a4,a6,a4
    80001272:	02d5883b          	mulw	a6,a1,a3
    80001276:	fe88a583          	lw	a1,-24(a7)
    8000127a:	4394                	lw	a3,0(a5)
    8000127c:	979a                	add	a5,a5,t1
    8000127e:	00e8073b          	addw	a4,a6,a4
    80001282:	02d5883b          	mulw	a6,a1,a3
    80001286:	4394                	lw	a3,0(a5)
    80001288:	008e2583          	lw	a1,8(t3)
    8000128c:	979a                	add	a5,a5,t1
    8000128e:	00e8073b          	addw	a4,a6,a4
    80001292:	02d5883b          	mulw	a6,a1,a3
    80001296:	4394                	lw	a3,0(a5)
    80001298:	00ce2583          	lw	a1,12(t3)
    8000129c:	979a                	add	a5,a5,t1
    8000129e:	00e8073b          	addw	a4,a6,a4
    800012a2:	02d5883b          	mulw	a6,a1,a3
    800012a6:	4394                	lw	a3,0(a5)
    800012a8:	010e2583          	lw	a1,16(t3)
    800012ac:	979a                	add	a5,a5,t1
    800012ae:	00e8073b          	addw	a4,a6,a4
    800012b2:	02d5883b          	mulw	a6,a1,a3
    800012b6:	4394                	lw	a3,0(a5)
    800012b8:	014e2583          	lw	a1,20(t3)
    800012bc:	979a                	add	a5,a5,t1
    800012be:	00e8073b          	addw	a4,a6,a4
    800012c2:	02d5883b          	mulw	a6,a1,a3
    800012c6:	4394                	lw	a3,0(a5)
    800012c8:	018e2583          	lw	a1,24(t3)
    800012cc:	979a                	add	a5,a5,t1
    800012ce:	00e8073b          	addw	a4,a6,a4
    800012d2:	02d5883b          	mulw	a6,a1,a3
    800012d6:	00e8073b          	addw	a4,a6,a4
    800012da:	f7d89ce3          	bne	a7,t4,80001252 <matmul+0x102>
    800012de:	00e2a023          	sw	a4,0(t0)
    800012e2:	0f85                	addi	t6,t6,1
    800012e4:	929a                	add	t0,t0,t1
    800012e6:	9f1a                	add	t5,t5,t1
    800012e8:	9e9a                	add	t4,t4,t1
    800012ea:	eaaf96e3          	bne	t6,a0,80001196 <matmul+0x46>
    800012ee:	0485                	addi	s1,s1,1
    800012f0:	0391                	addi	t2,t2,4
    800012f2:	0411                	addi	s0,s0,4
    800012f4:	e8961be3          	bne	a2,s1,8000118a <matmul+0x3a>
    800012f8:	7422                	ld	s0,40(sp)
    800012fa:	7482                	ld	s1,32(sp)
    800012fc:	6962                	ld	s2,24(sp)
    800012fe:	69c2                	ld	s3,16(sp)
    80001300:	6a22                	ld	s4,8(sp)
    80001302:	6145                	addi	sp,sp,48
    80001304:	8082                	ret

0000000080001306 <putchar>:
    80001306:	08022583          	lw	a1,128(tp) # 80 <buflen.3040>
    8000130a:	04020713          	addi	a4,tp,64 # 40 <buf.3039>
    8000130e:	972e                	add	a4,a4,a1
    80001310:	0015869b          	addiw	a3,a1,1
    80001314:	00a70023          	sb	a0,0(a4)
    80001318:	08d22023          	sw	a3,128(tp) # 80 <buflen.3040>
    8000131c:	4729                	li	a4,10
    8000131e:	00e50863          	beq	a0,a4,8000132e <putchar+0x28>
    80001322:	04000713          	li	a4,64
    80001326:	00e68663          	beq	a3,a4,80001332 <putchar+0x2c>
    8000132a:	4501                	li	a0,0
    8000132c:	8082                	ret
    8000132e:	04d05163          	blez	a3,80001370 <putchar+0x6a>
    80001332:	00001717          	auipc	a4,0x1
    80001336:	31e70713          	addi	a4,a4,798 # 80002650 <verify_data+0x400>
    8000133a:	03ffc537          	lui	a0,0x3ffc
    8000133e:	6318                	ld	a4,0(a4)
    80001340:	04020693          	addi	a3,tp,64 # 40 <buf.3039>
    80001344:	30b50513          	addi	a0,a0,779 # 3ffc30b <_tbss_end+0x3ffc287>
    80001348:	053a                	slli	a0,a0,0xe
    8000134a:	48a9                	li	a7,10
    8000134c:	fff6c813          	not	a6,a3
    80001350:	00074783          	lbu	a5,0(a4)
    80001354:	0207f793          	andi	a5,a5,32
    80001358:	dfe5                	beqz	a5,80001350 <putchar+0x4a>
    8000135a:	0006c783          	lbu	a5,0(a3)
    8000135e:	0685                	addi	a3,a3,1
    80001360:	00d8063b          	addw	a2,a6,a3
    80001364:	00f50023          	sb	a5,0(a0)
    80001368:	01178463          	beq	a5,a7,80001370 <putchar+0x6a>
    8000136c:	feb642e3          	blt	a2,a1,80001350 <putchar+0x4a>
    80001370:	08022023          	sw	zero,128(tp) # 80 <buflen.3040>
    80001374:	4501                	li	a0,0
    80001376:	8082                	ret

0000000080001378 <vprintfmt>:
    80001378:	710d                	addi	sp,sp,-352
    8000137a:	eaa2                	sd	s0,336(sp)
    8000137c:	e6a6                	sd	s1,328(sp)
    8000137e:	e2ca                	sd	s2,320(sp)
    80001380:	fa52                	sd	s4,304(sp)
    80001382:	f25a                	sd	s6,288(sp)
    80001384:	ee5e                	sd	s7,280(sp)
    80001386:	ee86                	sd	ra,344(sp)
    80001388:	fe4e                	sd	s3,312(sp)
    8000138a:	f656                	sd	s5,296(sp)
    8000138c:	ea62                	sd	s8,272(sp)
    8000138e:	e666                	sd	s9,264(sp)
    80001390:	e26a                	sd	s10,256(sp)
    80001392:	892a                	mv	s2,a0
    80001394:	84ae                	mv	s1,a1
    80001396:	8432                	mv	s0,a2
    80001398:	8bb6                	mv	s7,a3
    8000139a:	02500a13          	li	s4,37
    8000139e:	8e018b13          	addi	s6,gp,-1824 # 80002730 <verify_data+0x4e0>
    800013a2:	a029                	j	800013ac <vprintfmt+0x34>
    800013a4:	c131                	beqz	a0,800013e8 <vprintfmt+0x70>
    800013a6:	85a6                	mv	a1,s1
    800013a8:	0405                	addi	s0,s0,1
    800013aa:	9902                	jalr	s2
    800013ac:	00044503          	lbu	a0,0(s0)
    800013b0:	ff451ae3          	bne	a0,s4,800013a4 <vprintfmt+0x2c>
    800013b4:	00144683          	lbu	a3,1(s0)
    800013b8:	00140a93          	addi	s5,s0,1
    800013bc:	8756                	mv	a4,s5
    800013be:	02000c13          	li	s8,32
    800013c2:	59fd                	li	s3,-1
    800013c4:	5cfd                	li	s9,-1
    800013c6:	4501                	li	a0,0
    800013c8:	05500613          	li	a2,85
    800013cc:	45a5                	li	a1,9
    800013ce:	fdd6879b          	addiw	a5,a3,-35
    800013d2:	0ff7f793          	andi	a5,a5,255
    800013d6:	00170413          	addi	s0,a4,1
    800013da:	1cf66563          	bltu	a2,a5,800015a4 <vprintfmt+0x22c>
    800013de:	078a                	slli	a5,a5,0x2
    800013e0:	97da                	add	a5,a5,s6
    800013e2:	439c                	lw	a5,0(a5)
    800013e4:	97da                	add	a5,a5,s6
    800013e6:	8782                	jr	a5
    800013e8:	60f6                	ld	ra,344(sp)
    800013ea:	6456                	ld	s0,336(sp)
    800013ec:	64b6                	ld	s1,328(sp)
    800013ee:	6916                	ld	s2,320(sp)
    800013f0:	79f2                	ld	s3,312(sp)
    800013f2:	7a52                	ld	s4,304(sp)
    800013f4:	7ab2                	ld	s5,296(sp)
    800013f6:	7b12                	ld	s6,288(sp)
    800013f8:	6bf2                	ld	s7,280(sp)
    800013fa:	6c52                	ld	s8,272(sp)
    800013fc:	6cb2                	ld	s9,264(sp)
    800013fe:	6d12                	ld	s10,256(sp)
    80001400:	6135                	addi	sp,sp,352
    80001402:	8082                	ret
    80001404:	8c36                	mv	s8,a3
    80001406:	00174683          	lbu	a3,1(a4)
    8000140a:	8722                	mv	a4,s0
    8000140c:	b7c9                	j	800013ce <vprintfmt+0x56>
    8000140e:	4721                	li	a4,8
    80001410:	4785                	li	a5,1
    80001412:	008b8693          	addi	a3,s7,8
    80001416:	14a7c963          	blt	a5,a0,80001568 <vprintfmt+0x1f0>
    8000141a:	14051763          	bnez	a0,80001568 <vprintfmt+0x1f0>
    8000141e:	000be783          	lwu	a5,0(s7)
    80001422:	8bb6                	mv	s7,a3
    80001424:	02e7f9b3          	remu	s3,a5,a4
    80001428:	2c01                	sext.w	s8,s8
    8000142a:	0054                	addi	a3,sp,4
    8000142c:	4a85                	li	s5,1
    8000142e:	c04e                	sw	s3,0(sp)
    80001430:	00e7f463          	bgeu	a5,a4,80001438 <vprintfmt+0xc0>
    80001434:	aa7d                	j	800015f2 <vprintfmt+0x27a>
    80001436:	8aea                	mv	s5,s10
    80001438:	02e7d7b3          	divu	a5,a5,a4
    8000143c:	0691                	addi	a3,a3,4
    8000143e:	001a8d1b          	addiw	s10,s5,1
    80001442:	02e7f9b3          	remu	s3,a5,a4
    80001446:	ff36ae23          	sw	s3,-4(a3)
    8000144a:	fee7f6e3          	bgeu	a5,a4,80001436 <vprintfmt+0xbe>
    8000144e:	019d5963          	bge	s10,s9,80001460 <vprintfmt+0xe8>
    80001452:	2c81                	sext.w	s9,s9
    80001454:	3cfd                	addiw	s9,s9,-1
    80001456:	85a6                	mv	a1,s1
    80001458:	8562                	mv	a0,s8
    8000145a:	9902                	jalr	s2
    8000145c:	ff9d4ce3          	blt	s10,s9,80001454 <vprintfmt+0xdc>
    80001460:	002a9c13          	slli	s8,s5,0x2
    80001464:	01810ab3          	add	s5,sp,s8
    80001468:	418a8c33          	sub	s8,s5,s8
    8000146c:	4ca5                	li	s9,9
    8000146e:	a021                	j	80001476 <vprintfmt+0xfe>
    80001470:	ffcaa983          	lw	s3,-4(s5)
    80001474:	1af1                	addi	s5,s5,-4
    80001476:	05700513          	li	a0,87
    8000147a:	013ce463          	bltu	s9,s3,80001482 <vprintfmt+0x10a>
    8000147e:	03000513          	li	a0,48
    80001482:	85a6                	mv	a1,s1
    80001484:	0135053b          	addw	a0,a0,s3
    80001488:	9902                	jalr	s2
    8000148a:	ff5c13e3          	bne	s8,s5,80001470 <vprintfmt+0xf8>
    8000148e:	bf39                	j	800013ac <vprintfmt+0x34>
    80001490:	fffcc793          	not	a5,s9
    80001494:	97fd                	srai	a5,a5,0x3f
    80001496:	00fcfcb3          	and	s9,s9,a5
    8000149a:	00174683          	lbu	a3,1(a4)
    8000149e:	2c81                	sext.w	s9,s9
    800014a0:	8722                	mv	a4,s0
    800014a2:	b735                	j	800013ce <vprintfmt+0x56>
    800014a4:	4741                	li	a4,16
    800014a6:	b7ad                	j	80001410 <vprintfmt+0x98>
    800014a8:	fd06899b          	addiw	s3,a3,-48
    800014ac:	00174683          	lbu	a3,1(a4)
    800014b0:	8722                	mv	a4,s0
    800014b2:	fd06879b          	addiw	a5,a3,-48
    800014b6:	0006881b          	sext.w	a6,a3
    800014ba:	02f5e563          	bltu	a1,a5,800014e4 <vprintfmt+0x16c>
    800014be:	0705                	addi	a4,a4,1
    800014c0:	0029979b          	slliw	a5,s3,0x2
    800014c4:	00074683          	lbu	a3,0(a4)
    800014c8:	013789bb          	addw	s3,a5,s3
    800014cc:	0019999b          	slliw	s3,s3,0x1
    800014d0:	010989bb          	addw	s3,s3,a6
    800014d4:	fd06879b          	addiw	a5,a3,-48
    800014d8:	fd09899b          	addiw	s3,s3,-48
    800014dc:	0006881b          	sext.w	a6,a3
    800014e0:	fcf5ffe3          	bgeu	a1,a5,800014be <vprintfmt+0x146>
    800014e4:	ee0cd5e3          	bgez	s9,800013ce <vprintfmt+0x56>
    800014e8:	8cce                	mv	s9,s3
    800014ea:	59fd                	li	s3,-1
    800014ec:	b5cd                	j	800013ce <vprintfmt+0x56>
    800014ee:	000ba503          	lw	a0,0(s7)
    800014f2:	85a6                	mv	a1,s1
    800014f4:	0ba1                	addi	s7,s7,8
    800014f6:	9902                	jalr	s2
    800014f8:	bd55                	j	800013ac <vprintfmt+0x34>
    800014fa:	000bba83          	ld	s5,0(s7)
    800014fe:	0ba1                	addi	s7,s7,8
    80001500:	100a8b63          	beqz	s5,80001616 <vprintfmt+0x29e>
    80001504:	0f905163          	blez	s9,800015e6 <vprintfmt+0x26e>
    80001508:	02d00793          	li	a5,45
    8000150c:	0afc1663          	bne	s8,a5,800015b8 <vprintfmt+0x240>
    80001510:	000ac503          	lbu	a0,0(s5)
    80001514:	c105                	beqz	a0,80001534 <vprintfmt+0x1bc>
    80001516:	5c7d                	li	s8,-1
    80001518:	0009c563          	bltz	s3,80001522 <vprintfmt+0x1aa>
    8000151c:	39fd                	addiw	s3,s3,-1
    8000151e:	01898963          	beq	s3,s8,80001530 <vprintfmt+0x1b8>
    80001522:	85a6                	mv	a1,s1
    80001524:	0a85                	addi	s5,s5,1
    80001526:	9902                	jalr	s2
    80001528:	000ac503          	lbu	a0,0(s5)
    8000152c:	3cfd                	addiw	s9,s9,-1
    8000152e:	f56d                	bnez	a0,80001518 <vprintfmt+0x1a0>
    80001530:	e7905ee3          	blez	s9,800013ac <vprintfmt+0x34>
    80001534:	3cfd                	addiw	s9,s9,-1
    80001536:	85a6                	mv	a1,s1
    80001538:	02000513          	li	a0,32
    8000153c:	9902                	jalr	s2
    8000153e:	fe0c9be3          	bnez	s9,80001534 <vprintfmt+0x1bc>
    80001542:	b5ad                	j	800013ac <vprintfmt+0x34>
    80001544:	4729                	li	a4,10
    80001546:	b5e9                	j	80001410 <vprintfmt+0x98>
    80001548:	00174683          	lbu	a3,1(a4)
    8000154c:	2505                	addiw	a0,a0,1
    8000154e:	8722                	mv	a4,s0
    80001550:	bdbd                	j	800013ce <vprintfmt+0x56>
    80001552:	03000513          	li	a0,48
    80001556:	85a6                	mv	a1,s1
    80001558:	9902                	jalr	s2
    8000155a:	85a6                	mv	a1,s1
    8000155c:	07800513          	li	a0,120
    80001560:	9902                	jalr	s2
    80001562:	008b8693          	addi	a3,s7,8
    80001566:	4741                	li	a4,16
    80001568:	000bb783          	ld	a5,0(s7)
    8000156c:	8bb6                	mv	s7,a3
    8000156e:	bd5d                	j	80001424 <vprintfmt+0xac>
    80001570:	4785                	li	a5,1
    80001572:	008b8a93          	addi	s5,s7,8
    80001576:	00a7c363          	blt	a5,a0,8000157c <vprintfmt+0x204>
    8000157a:	c151                	beqz	a0,800015fe <vprintfmt+0x286>
    8000157c:	000bb983          	ld	s3,0(s7)
    80001580:	0809c263          	bltz	s3,80001604 <vprintfmt+0x28c>
    80001584:	87ce                	mv	a5,s3
    80001586:	8bd6                	mv	s7,s5
    80001588:	4729                	li	a4,10
    8000158a:	bd69                	j	80001424 <vprintfmt+0xac>
    8000158c:	85a6                	mv	a1,s1
    8000158e:	02500513          	li	a0,37
    80001592:	9902                	jalr	s2
    80001594:	bd21                	j	800013ac <vprintfmt+0x34>
    80001596:	000ba983          	lw	s3,0(s7)
    8000159a:	00174683          	lbu	a3,1(a4)
    8000159e:	0ba1                	addi	s7,s7,8
    800015a0:	8722                	mv	a4,s0
    800015a2:	b789                	j	800014e4 <vprintfmt+0x16c>
    800015a4:	85a6                	mv	a1,s1
    800015a6:	02500513          	li	a0,37
    800015aa:	9902                	jalr	s2
    800015ac:	8456                	mv	s0,s5
    800015ae:	bbfd                	j	800013ac <vprintfmt+0x34>
    800015b0:	00001a97          	auipc	s5,0x1
    800015b4:	130a8a93          	addi	s5,s5,304 # 800026e0 <verify_data+0x490>
    800015b8:	06098d63          	beqz	s3,80001632 <vprintfmt+0x2ba>
    800015bc:	000ac783          	lbu	a5,0(s5)
    800015c0:	cbad                	beqz	a5,80001632 <vprintfmt+0x2ba>
    800015c2:	001a8793          	addi	a5,s5,1
    800015c6:	013a8633          	add	a2,s5,s3
    800015ca:	a029                	j	800015d4 <vprintfmt+0x25c>
    800015cc:	0785                	addi	a5,a5,1
    800015ce:	fff7c703          	lbu	a4,-1(a5)
    800015d2:	cb25                	beqz	a4,80001642 <vprintfmt+0x2ca>
    800015d4:	86be                	mv	a3,a5
    800015d6:	fef61be3          	bne	a2,a5,800015cc <vprintfmt+0x254>
    800015da:	415606bb          	subw	a3,a2,s5
    800015de:	40dc8cbb          	subw	s9,s9,a3
    800015e2:	05904863          	bgtz	s9,80001632 <vprintfmt+0x2ba>
    800015e6:	000ac503          	lbu	a0,0(s5)
    800015ea:	dc0501e3          	beqz	a0,800013ac <vprintfmt+0x34>
    800015ee:	5c7d                	li	s8,-1
    800015f0:	b725                	j	80001518 <vprintfmt+0x1a0>
    800015f2:	4785                	li	a5,1
    800015f4:	4a81                	li	s5,0
    800015f6:	4d05                	li	s10,1
    800015f8:	e597cde3          	blt	a5,s9,80001452 <vprintfmt+0xda>
    800015fc:	b595                	j	80001460 <vprintfmt+0xe8>
    800015fe:	000ba983          	lw	s3,0(s7)
    80001602:	bfbd                	j	80001580 <vprintfmt+0x208>
    80001604:	85a6                	mv	a1,s1
    80001606:	02d00513          	li	a0,45
    8000160a:	9902                	jalr	s2
    8000160c:	8bd6                	mv	s7,s5
    8000160e:	413007b3          	neg	a5,s3
    80001612:	4729                	li	a4,10
    80001614:	bd01                	j	80001424 <vprintfmt+0xac>
    80001616:	01905663          	blez	s9,80001622 <vprintfmt+0x2aa>
    8000161a:	02d00793          	li	a5,45
    8000161e:	f8fc19e3          	bne	s8,a5,800015b0 <vprintfmt+0x238>
    80001622:	00001a97          	auipc	s5,0x1
    80001626:	0bea8a93          	addi	s5,s5,190 # 800026e0 <verify_data+0x490>
    8000162a:	02800513          	li	a0,40
    8000162e:	5c7d                	li	s8,-1
    80001630:	b5e5                	j	80001518 <vprintfmt+0x1a0>
    80001632:	2c01                	sext.w	s8,s8
    80001634:	3cfd                	addiw	s9,s9,-1
    80001636:	85a6                	mv	a1,s1
    80001638:	8562                	mv	a0,s8
    8000163a:	9902                	jalr	s2
    8000163c:	fe0c9ce3          	bnez	s9,80001634 <vprintfmt+0x2bc>
    80001640:	b75d                	j	800015e6 <vprintfmt+0x26e>
    80001642:	415686bb          	subw	a3,a3,s5
    80001646:	bf61                	j	800015de <vprintfmt+0x266>

0000000080001648 <sprintf_putch.3154>:
    80001648:	619c                	ld	a5,0(a1)
    8000164a:	00a78023          	sb	a0,0(a5)
    8000164e:	619c                	ld	a5,0(a1)
    80001650:	0785                	addi	a5,a5,1
    80001652:	e19c                	sd	a5,0(a1)
    80001654:	8082                	ret

0000000080001656 <printbuf>:
    80001656:	04b05263          	blez	a1,8000169a <printbuf+0x44>
    8000165a:	fff5879b          	addiw	a5,a1,-1
    8000165e:	00001717          	auipc	a4,0x1
    80001662:	ff270713          	addi	a4,a4,-14 # 80002650 <verify_data+0x400>
    80001666:	1782                	slli	a5,a5,0x20
    80001668:	03ffc6b7          	lui	a3,0x3ffc
    8000166c:	6318                	ld	a4,0(a4)
    8000166e:	00150613          	addi	a2,a0,1
    80001672:	9381                	srli	a5,a5,0x20
    80001674:	30b68693          	addi	a3,a3,779 # 3ffc30b <_tbss_end+0x3ffc287>
    80001678:	963e                	add	a2,a2,a5
    8000167a:	06ba                	slli	a3,a3,0xe
    8000167c:	45a9                	li	a1,10
    8000167e:	00074783          	lbu	a5,0(a4)
    80001682:	0207f793          	andi	a5,a5,32
    80001686:	dfe5                	beqz	a5,8000167e <printbuf+0x28>
    80001688:	00054783          	lbu	a5,0(a0)
    8000168c:	0505                	addi	a0,a0,1
    8000168e:	00f68023          	sb	a5,0(a3)
    80001692:	00b78463          	beq	a5,a1,8000169a <printbuf+0x44>
    80001696:	fec514e3          	bne	a0,a2,8000167e <printbuf+0x28>
    8000169a:	8082                	ret

000000008000169c <pass>:
    8000169c:	a001                	j	8000169c <pass>

000000008000169e <fail>:
    8000169e:	a001                	j	8000169e <fail>

00000000800016a0 <setStats>:
    800016a0:	b00027f3          	csrr	a5,mcycle
    800016a4:	e4818713          	addi	a4,gp,-440 # 80002c98 <counters>
    800016a8:	e909                	bnez	a0,800016ba <setStats+0x1a>
    800016aa:	6314                	ld	a3,0(a4)
    800016ac:	00001617          	auipc	a2,0x1
    800016b0:	03c60613          	addi	a2,a2,60 # 800026e8 <verify_data+0x498>
    800016b4:	e4c1bc23          	sd	a2,-424(gp) # 80002ca8 <counter_names>
    800016b8:	8f95                	sub	a5,a5,a3
    800016ba:	e4f1b423          	sd	a5,-440(gp) # 80002c98 <counters>
    800016be:	b02027f3          	csrr	a5,minstret
    800016c2:	e909                	bnez	a0,800016d4 <setStats+0x34>
    800016c4:	6718                	ld	a4,8(a4)
    800016c6:	00001697          	auipc	a3,0x1
    800016ca:	02a68693          	addi	a3,a3,42 # 800026f0 <verify_data+0x4a0>
    800016ce:	e6d1b023          	sd	a3,-416(gp) # 80002cb0 <counter_names+0x8>
    800016d2:	8f99                	sub	a5,a5,a4
    800016d4:	e4f1b823          	sd	a5,-432(gp) # 80002ca0 <counters+0x8>
    800016d8:	8082                	ret

00000000800016da <tohost_exit>:
    800016da:	1141                	addi	sp,sp,-16
    800016dc:	e406                	sd	ra,8(sp)
    800016de:	c119                	beqz	a0,800016e4 <tohost_exit+0xa>
    800016e0:	fbfff0ef          	jal	ra,8000169e <fail>
    800016e4:	fb9ff0ef          	jal	ra,8000169c <pass>

00000000800016e8 <handle_trap>:
    800016e8:	1141                	addi	sp,sp,-16
    800016ea:	53900513          	li	a0,1337
    800016ee:	e406                	sd	ra,8(sp)
    800016f0:	febff0ef          	jal	ra,800016da <tohost_exit>

00000000800016f4 <exit>:
    800016f4:	1141                	addi	sp,sp,-16
    800016f6:	e406                	sd	ra,8(sp)
    800016f8:	fe3ff0ef          	jal	ra,800016da <tohost_exit>

00000000800016fc <abort>:
    800016fc:	1141                	addi	sp,sp,-16
    800016fe:	08600513          	li	a0,134
    80001702:	e406                	sd	ra,8(sp)
    80001704:	ff1ff0ef          	jal	ra,800016f4 <exit>

0000000080001708 <printstr>:
    80001708:	00054603          	lbu	a2,0(a0)
    8000170c:	ca31                	beqz	a2,80001760 <printstr+0x58>
    8000170e:	87aa                	mv	a5,a0
    80001710:	0785                	addi	a5,a5,1
    80001712:	0007c703          	lbu	a4,0(a5)
    80001716:	ff6d                	bnez	a4,80001710 <printstr+0x8>
    80001718:	8f89                	sub	a5,a5,a0
    8000171a:	0007871b          	sext.w	a4,a5
    8000171e:	04e05163          	blez	a4,80001760 <printstr+0x58>
    80001722:	37fd                	addiw	a5,a5,-1
    80001724:	00001717          	auipc	a4,0x1
    80001728:	f2c70713          	addi	a4,a4,-212 # 80002650 <verify_data+0x400>
    8000172c:	1782                	slli	a5,a5,0x20
    8000172e:	03ffc5b7          	lui	a1,0x3ffc
    80001732:	6318                	ld	a4,0(a4)
    80001734:	9381                	srli	a5,a5,0x20
    80001736:	30b58593          	addi	a1,a1,779 # 3ffc30b <_tbss_end+0x3ffc287>
    8000173a:	00f506b3          	add	a3,a0,a5
    8000173e:	05ba                	slli	a1,a1,0xe
    80001740:	4829                	li	a6,10
    80001742:	00074783          	lbu	a5,0(a4)
    80001746:	0207f793          	andi	a5,a5,32
    8000174a:	dfe5                	beqz	a5,80001742 <printstr+0x3a>
    8000174c:	00c58023          	sb	a2,0(a1)
    80001750:	01060863          	beq	a2,a6,80001760 <printstr+0x58>
    80001754:	00d50663          	beq	a0,a3,80001760 <printstr+0x58>
    80001758:	00154603          	lbu	a2,1(a0)
    8000175c:	0505                	addi	a0,a0,1
    8000175e:	b7d5                	j	80001742 <printstr+0x3a>
    80001760:	8082                	ret

0000000080001762 <printhex>:
    80001762:	7179                	addi	sp,sp,-48
    80001764:	862a                	mv	a2,a0
    80001766:	f406                	sd	ra,40(sp)
    80001768:	0028                	addi	a0,sp,8
    8000176a:	01710693          	addi	a3,sp,23
    8000176e:	4825                	li	a6,9
    80001770:	a011                	j	80001774 <printhex+0x12>
    80001772:	86be                	mv	a3,a5
    80001774:	00f67793          	andi	a5,a2,15
    80001778:	03000593          	li	a1,48
    8000177c:	0ff7f713          	andi	a4,a5,255
    80001780:	00f87463          	bgeu	a6,a5,80001788 <printhex+0x26>
    80001784:	05700593          	li	a1,87
    80001788:	00b707bb          	addw	a5,a4,a1
    8000178c:	00f68023          	sb	a5,0(a3)
    80001790:	8211                	srli	a2,a2,0x4
    80001792:	fff68793          	addi	a5,a3,-1
    80001796:	fcd51ee3          	bne	a0,a3,80001772 <printhex+0x10>
    8000179a:	00010c23          	sb	zero,24(sp)
    8000179e:	f6bff0ef          	jal	ra,80001708 <printstr>
    800017a2:	70a2                	ld	ra,40(sp)
    800017a4:	6145                	addi	sp,sp,48
    800017a6:	8082                	ret

00000000800017a8 <printf>:
    800017a8:	711d                	addi	sp,sp,-96
    800017aa:	02810313          	addi	t1,sp,40
    800017ae:	f42e                	sd	a1,40(sp)
    800017b0:	f832                	sd	a2,48(sp)
    800017b2:	fc36                	sd	a3,56(sp)
    800017b4:	862a                	mv	a2,a0
    800017b6:	869a                	mv	a3,t1
    800017b8:	00000517          	auipc	a0,0x0
    800017bc:	b4e50513          	addi	a0,a0,-1202 # 80001306 <putchar>
    800017c0:	4581                	li	a1,0
    800017c2:	ec06                	sd	ra,24(sp)
    800017c4:	e0ba                	sd	a4,64(sp)
    800017c6:	e4be                	sd	a5,72(sp)
    800017c8:	e8c2                	sd	a6,80(sp)
    800017ca:	ecc6                	sd	a7,88(sp)
    800017cc:	e41a                	sd	t1,8(sp)
    800017ce:	babff0ef          	jal	ra,80001378 <vprintfmt>
    800017d2:	60e2                	ld	ra,24(sp)
    800017d4:	4501                	li	a0,0
    800017d6:	6125                	addi	sp,sp,96
    800017d8:	8082                	ret

00000000800017da <sprintf>:
    800017da:	711d                	addi	sp,sp,-96
    800017dc:	03010313          	addi	t1,sp,48
    800017e0:	f022                	sd	s0,32(sp)
    800017e2:	e42a                	sd	a0,8(sp)
    800017e4:	f832                	sd	a2,48(sp)
    800017e6:	fc36                	sd	a3,56(sp)
    800017e8:	842a                	mv	s0,a0
    800017ea:	862e                	mv	a2,a1
    800017ec:	00000517          	auipc	a0,0x0
    800017f0:	e5c50513          	addi	a0,a0,-420 # 80001648 <sprintf_putch.3154>
    800017f4:	002c                	addi	a1,sp,8
    800017f6:	869a                	mv	a3,t1
    800017f8:	f406                	sd	ra,40(sp)
    800017fa:	e4be                	sd	a5,72(sp)
    800017fc:	e0ba                	sd	a4,64(sp)
    800017fe:	e8c2                	sd	a6,80(sp)
    80001800:	ecc6                	sd	a7,88(sp)
    80001802:	ec1a                	sd	t1,24(sp)
    80001804:	b75ff0ef          	jal	ra,80001378 <vprintfmt>
    80001808:	67a2                	ld	a5,8(sp)
    8000180a:	00078023          	sb	zero,0(a5)
    8000180e:	6522                	ld	a0,8(sp)
    80001810:	70a2                	ld	ra,40(sp)
    80001812:	9d01                	subw	a0,a0,s0
    80001814:	7402                	ld	s0,32(sp)
    80001816:	6125                	addi	sp,sp,96
    80001818:	8082                	ret

000000008000181a <_init>:
    8000181a:	7131                	addi	sp,sp,-192
    8000181c:	f922                	sd	s0,176(sp)
    8000181e:	f14a                	sd	s2,160(sp)
    80001820:	842e                	mv	s0,a1
    80001822:	892a                	mv	s2,a0
    80001824:	002c                	addi	a1,sp,8
    80001826:	4509                	li	a0,2
    80001828:	f526                	sd	s1,168(sp)
    8000182a:	ed4e                	sd	s3,152(sp)
    8000182c:	fd06                	sd	ra,184(sp)
    8000182e:	e952                	sd	s4,144(sp)
    80001830:	e556                	sd	s5,136(sp)
    80001832:	04f10493          	addi	s1,sp,79
    80001836:	01210023          	sb	s2,0(sp)
    8000183a:	008100a3          	sb	s0,1(sp)
    8000183e:	e40a                	sd	sp,8(sp)
    80001840:	1f2000ef          	jal	ra,80001a32 <main>
    80001844:	fc04f493          	andi	s1,s1,-64
    80001848:	89aa                	mv	s3,a0
    8000184a:	a4418713          	addi	a4,gp,-1468 # 80002894 <finish_sync0.3019>
    8000184e:	4785                	li	a5,1
    80001850:	00f7202f          	amoadd.w	zero,a5,(a4)
    80001854:	0004059b          	sext.w	a1,s0
    80001858:	431c                	lw	a5,0(a4)
    8000185a:	2781                	sext.w	a5,a5
    8000185c:	feb79ee3          	bne	a5,a1,80001858 <_init+0x3e>
    80001860:	0009071b          	sext.w	a4,s2
    80001864:	a4018413          	addi	s0,gp,-1472 # 80002890 <finish_sync1.3020>
    80001868:	401c                	lw	a5,0(s0)
    8000186a:	2781                	sext.w	a5,a5
    8000186c:	fee79ee3          	bne	a5,a4,80001868 <_init+0x4e>
    80001870:	e4818a13          	addi	s4,gp,-440 # 80002c98 <counters>
    80001874:	000a3703          	ld	a4,0(s4)
    80001878:	ef05                	bnez	a4,800018b0 <_init+0x96>
    8000187a:	008a3703          	ld	a4,8(s4)
    8000187e:	e719                	bnez	a4,8000188c <_init+0x72>
    80001880:	4785                	li	a5,1
    80001882:	00f4202f          	amoadd.w	zero,a5,(s0)
    80001886:	854e                	mv	a0,s3
    80001888:	e6dff0ef          	jal	ra,800016f4 <exit>
    8000188c:	8aa6                	mv	s5,s1
    8000188e:	018a3683          	ld	a3,24(s4)
    80001892:	8556                	mv	a0,s5
    80001894:	864a                	mv	a2,s2
    80001896:	00001597          	auipc	a1,0x1
    8000189a:	e8258593          	addi	a1,a1,-382 # 80002718 <verify_data+0x4c8>
    8000189e:	f3dff0ef          	jal	ra,800017da <sprintf>
    800018a2:	9aaa                	add	s5,s5,a0
    800018a4:	fd548ee3          	beq	s1,s5,80001880 <_init+0x66>
    800018a8:	8526                	mv	a0,s1
    800018aa:	e5fff0ef          	jal	ra,80001708 <printstr>
    800018ae:	bfc9                	j	80001880 <_init+0x66>
    800018b0:	010a3683          	ld	a3,16(s4)
    800018b4:	864a                	mv	a2,s2
    800018b6:	00001597          	auipc	a1,0x1
    800018ba:	e6258593          	addi	a1,a1,-414 # 80002718 <verify_data+0x4c8>
    800018be:	8526                	mv	a0,s1
    800018c0:	f1bff0ef          	jal	ra,800017da <sprintf>
    800018c4:	008a3703          	ld	a4,8(s4)
    800018c8:	00a48ab3          	add	s5,s1,a0
    800018cc:	df61                	beqz	a4,800018a4 <_init+0x8a>
    800018ce:	b7c1                	j	8000188e <_init+0x74>

00000000800018d0 <memcpy>:
    800018d0:	00c5e7b3          	or	a5,a1,a2
    800018d4:	8fc9                	or	a5,a5,a0
    800018d6:	8b9d                	andi	a5,a5,7
    800018d8:	00c506b3          	add	a3,a0,a2
    800018dc:	cf91                	beqz	a5,800018f8 <memcpy+0x28>
    800018de:	962e                	add	a2,a2,a1
    800018e0:	87aa                	mv	a5,a0
    800018e2:	02d57763          	bgeu	a0,a3,80001910 <memcpy+0x40>
    800018e6:	0585                	addi	a1,a1,1
    800018e8:	fff5c703          	lbu	a4,-1(a1)
    800018ec:	0785                	addi	a5,a5,1
    800018ee:	fee78fa3          	sb	a4,-1(a5)
    800018f2:	feb61ae3          	bne	a2,a1,800018e6 <memcpy+0x16>
    800018f6:	8082                	ret
    800018f8:	fed57fe3          	bgeu	a0,a3,800018f6 <memcpy+0x26>
    800018fc:	87aa                	mv	a5,a0
    800018fe:	05a1                	addi	a1,a1,8
    80001900:	ff85b703          	ld	a4,-8(a1)
    80001904:	07a1                	addi	a5,a5,8
    80001906:	fee7bc23          	sd	a4,-8(a5)
    8000190a:	fed7eae3          	bltu	a5,a3,800018fe <memcpy+0x2e>
    8000190e:	8082                	ret
    80001910:	8082                	ret

0000000080001912 <memset>:
    80001912:	00c567b3          	or	a5,a0,a2
    80001916:	8b9d                	andi	a5,a5,7
    80001918:	962a                	add	a2,a2,a0
    8000191a:	0ff5f593          	andi	a1,a1,255
    8000191e:	cb91                	beqz	a5,80001932 <memset+0x20>
    80001920:	87aa                	mv	a5,a0
    80001922:	02c57a63          	bgeu	a0,a2,80001956 <memset+0x44>
    80001926:	0785                	addi	a5,a5,1
    80001928:	feb78fa3          	sb	a1,-1(a5)
    8000192c:	fef61de3          	bne	a2,a5,80001926 <memset+0x14>
    80001930:	8082                	ret
    80001932:	00859793          	slli	a5,a1,0x8
    80001936:	8ddd                	or	a1,a1,a5
    80001938:	01059793          	slli	a5,a1,0x10
    8000193c:	8fcd                	or	a5,a5,a1
    8000193e:	02079593          	slli	a1,a5,0x20
    80001942:	8ddd                	or	a1,a1,a5
    80001944:	fec576e3          	bgeu	a0,a2,80001930 <memset+0x1e>
    80001948:	87aa                	mv	a5,a0
    8000194a:	07a1                	addi	a5,a5,8
    8000194c:	feb7bc23          	sd	a1,-8(a5)
    80001950:	fec7ede3          	bltu	a5,a2,8000194a <memset+0x38>
    80001954:	8082                	ret
    80001956:	8082                	ret

0000000080001958 <strlen>:
    80001958:	00054783          	lbu	a5,0(a0)
    8000195c:	cb89                	beqz	a5,8000196e <strlen+0x16>
    8000195e:	87aa                	mv	a5,a0
    80001960:	0785                	addi	a5,a5,1
    80001962:	0007c703          	lbu	a4,0(a5)
    80001966:	ff6d                	bnez	a4,80001960 <strlen+0x8>
    80001968:	40a78533          	sub	a0,a5,a0
    8000196c:	8082                	ret
    8000196e:	4501                	li	a0,0
    80001970:	8082                	ret

0000000080001972 <strnlen>:
    80001972:	cd91                	beqz	a1,8000198e <strnlen+0x1c>
    80001974:	00054783          	lbu	a5,0(a0)
    80001978:	c38d                	beqz	a5,8000199a <strnlen+0x28>
    8000197a:	00b506b3          	add	a3,a0,a1
    8000197e:	87aa                	mv	a5,a0
    80001980:	a021                	j	80001988 <strnlen+0x16>
    80001982:	0007c703          	lbu	a4,0(a5)
    80001986:	c711                	beqz	a4,80001992 <strnlen+0x20>
    80001988:	0785                	addi	a5,a5,1
    8000198a:	fed79ce3          	bne	a5,a3,80001982 <strnlen+0x10>
    8000198e:	852e                	mv	a0,a1
    80001990:	8082                	ret
    80001992:	40a785b3          	sub	a1,a5,a0
    80001996:	852e                	mv	a0,a1
    80001998:	8082                	ret
    8000199a:	4581                	li	a1,0
    8000199c:	bfcd                	j	8000198e <strnlen+0x1c>

000000008000199e <strcmp>:
    8000199e:	0505                	addi	a0,a0,1
    800019a0:	fff54783          	lbu	a5,-1(a0)
    800019a4:	0585                	addi	a1,a1,1
    800019a6:	fff5c703          	lbu	a4,-1(a1)
    800019aa:	c799                	beqz	a5,800019b8 <strcmp+0x1a>
    800019ac:	fee789e3          	beq	a5,a4,8000199e <strcmp>
    800019b0:	0007851b          	sext.w	a0,a5
    800019b4:	9d19                	subw	a0,a0,a4
    800019b6:	8082                	ret
    800019b8:	4501                	li	a0,0
    800019ba:	bfed                	j	800019b4 <strcmp+0x16>

00000000800019bc <strcpy>:
    800019bc:	87aa                	mv	a5,a0
    800019be:	0585                	addi	a1,a1,1
    800019c0:	fff5c703          	lbu	a4,-1(a1)
    800019c4:	0785                	addi	a5,a5,1
    800019c6:	fee78fa3          	sb	a4,-1(a5)
    800019ca:	fb75                	bnez	a4,800019be <strcpy+0x2>
    800019cc:	8082                	ret

00000000800019ce <atol>:
    800019ce:	00054783          	lbu	a5,0(a0)
    800019d2:	02000713          	li	a4,32
    800019d6:	00e79763          	bne	a5,a4,800019e4 <atol+0x16>
    800019da:	0505                	addi	a0,a0,1
    800019dc:	00054783          	lbu	a5,0(a0)
    800019e0:	fee78de3          	beq	a5,a4,800019da <atol+0xc>
    800019e4:	fd57871b          	addiw	a4,a5,-43
    800019e8:	0fd77713          	andi	a4,a4,253
    800019ec:	c715                	beqz	a4,80001a18 <atol+0x4a>
    800019ee:	00054683          	lbu	a3,0(a0)
    800019f2:	87aa                	mv	a5,a0
    800019f4:	4601                	li	a2,0
    800019f6:	ce85                	beqz	a3,80001a2e <atol+0x60>
    800019f8:	4501                	li	a0,0
    800019fa:	0785                	addi	a5,a5,1
    800019fc:	fd06859b          	addiw	a1,a3,-48
    80001a00:	00251713          	slli	a4,a0,0x2
    80001a04:	0007c683          	lbu	a3,0(a5)
    80001a08:	953a                	add	a0,a0,a4
    80001a0a:	0506                	slli	a0,a0,0x1
    80001a0c:	952e                	add	a0,a0,a1
    80001a0e:	f6f5                	bnez	a3,800019fa <atol+0x2c>
    80001a10:	c219                	beqz	a2,80001a16 <atol+0x48>
    80001a12:	40a00533          	neg	a0,a0
    80001a16:	8082                	ret
    80001a18:	00154683          	lbu	a3,1(a0)
    80001a1c:	fd378793          	addi	a5,a5,-45
    80001a20:	0017b613          	seqz	a2,a5
    80001a24:	00150793          	addi	a5,a0,1
    80001a28:	fae1                	bnez	a3,800019f8 <atol+0x2a>
    80001a2a:	4501                	li	a0,0
    80001a2c:	b7d5                	j	80001a10 <atol+0x42>
    80001a2e:	4501                	li	a0,0
    80001a30:	8082                	ret

Disassembly of section .text.startup:

0000000080001a32 <main>:
    80001a32:	1141                	addi	sp,sp,-16
    80001a34:	00001517          	auipc	a0,0x1
    80001a38:	ccc50513          	addi	a0,a0,-820 # 80002700 <verify_data+0x4b0>
    80001a3c:	e406                	sd	ra,8(sp)
    80001a3e:	ccbff0ef          	jal	ra,80001708 <printstr>
    80001a42:	60a2                	ld	ra,8(sp)
    80001a44:	557d                	li	a0,-1
    80001a46:	0141                	addi	sp,sp,16
    80001a48:	8082                	ret
